target datalayout = "e-m:e-p270:32:32-p271:32:32-p272:64:64-i64:64-i128:128-f80:128-n8:16:32:64-S128"
target triple = "x86_64-pc-linux-gnu"

%struct.If_Cut_t_ = type <{ float, float, float, float, i32, i32, i32, i64, [0 x i32] }>

; Function Attrs: nounwind uwtable
define float @If_CutPowerRefed(ptr noundef %0, ptr noundef %1, ptr noundef %2) #0 {
  %4 = alloca float, align 4
  %5 = alloca ptr, align 8
  %6 = alloca ptr, align 8
  %7 = alloca ptr, align 8
  %8 = alloca float, align 4
  %9 = alloca float, align 4
  %10 = alloca i32, align 4
  store ptr %0, ptr %5, align 8, !tbaa !35
  store ptr %1, ptr %6, align 8, !tbaa !15
  store ptr %2, ptr %7, align 8, !tbaa !99
  call void @llvm.lifetime.start.p0(i64 4, ptr %8) #9
  call void @llvm.lifetime.start.p0(i64 4, ptr %9) #9
  %11 = load ptr, ptr %6, align 8, !tbaa !15
  %12 = getelementptr inbounds nuw %struct.If_Cut_t_, ptr %11, i32 0, i32 7
  %13 = load i64, ptr %12, align 4
  %14 = lshr i64 %13, 24
  %15 = and i64 %14, 255
  %16 = trunc i64 %15 to i32
  %17 = icmp slt i32 %16, 2
  br i1 %17, label %18, label %19

18:                                               ; preds = %3
  store float 0.000000e+00, ptr %4, align 4
  store i32 1, ptr %10, align 4
  br label %29

19:                                               ; preds = %3
  %20 = load ptr, ptr %5, align 8, !tbaa !35
  %21 = load ptr, ptr %6, align 8, !tbaa !15
  %22 = load ptr, ptr %7, align 8, !tbaa !99
  %23 = call float @If_CutPowerDeref(ptr noundef %20, ptr noundef %21, ptr noundef %22)
  store float %23, ptr %9, align 4, !tbaa !106
  %24 = load ptr, ptr %5, align 8, !tbaa !35
  %25 = load ptr, ptr %6, align 8, !tbaa !15
  %26 = load ptr, ptr %7, align 8, !tbaa !99
  %27 = call float @If_CutPowerRef(ptr noundef %24, ptr noundef %25, ptr noundef %26)
  store float %27, ptr %8, align 4, !tbaa !106
  %28 = load float, ptr %8, align 4, !tbaa !106
  store float %28, ptr %4, align 4
  store i32 1, ptr %10, align 4
  br label %29

29:                                               ; preds = %19, %18
  call void @llvm.lifetime.end.p0(i64 4, ptr %9) #9
  call void @llvm.lifetime.end.p0(i64 4, ptr %8) #9
  %30 = load float, ptr %4, align 4
  ret float %30
}