; Function Attrs: nofree nosync nounwind memory(readwrite, inaccessiblemem: none) uwtable
define float @If_CutPowerRefed(ptr noundef readonly captures(none) %0, ptr noundef readonly captures(none) %1, ptr noundef readnone captures(none) %2) local_unnamed_addr #8 {
  %4 = getelementptr inbounds nuw i8, ptr %1, i64 28
  %5 = load i64, ptr %4, align 4
  %6 = and i64 %5, 4261412864
  %7 = icmp eq i64 %6, 0
  br i1 %7, label %11, label %8

8:                                                ; preds = %3
  %9 = tail call float @If_CutPowerDeref(ptr noundef %0, ptr noundef nonnull %1, ptr noundef %2)
  %10 = tail call float @If_CutPowerRef(ptr noundef %0, ptr noundef nonnull %1, ptr noundef %2)
  br label %11

11:                                               ; preds = %3, %8
  %.0 = phi float [ %10, %8 ], [ 0.000000e+00, %3 ]
  ret float %.0
}